; Function Attrs: mustprogress nofree norecurse nosync nounwind willreturn memory(argmem: readwrite) uwtable
define void @_ZNK32pxrInternal_v0_24__pxrReserved__7GfPlane11GetEquationEv(ptr dead_on_unwind noalias nocapture writable writeonly sret(%"class.pxrInternal_v0_24__pxrReserved__::GfVec4d") align 8 %0, ptr nocapture noundef nonnull readonly align 8 dereferenceable(32) %1) local_unnamed_addr #1 align 2 {
  %3 = load double, ptr %1, align 8
  %4 = getelementptr inbounds i8, ptr %1, i64 8
  %5 = load double, ptr %4, align 8
  %6 = getelementptr inbounds i8, ptr %1, i64 16
  %7 = load double, ptr %6, align 8
  %8 = getelementptr inbounds nuw i8, ptr %1, i64 24
  %9 = load double, ptr %8, align 8
  %10 = fneg double %9
  store double %3, ptr %0, align 8
  %11 = getelementptr inbounds i8, ptr %0, i64 8
  store double %5, ptr %11, align 8
  %12 = getelementptr inbounds i8, ptr %0, i64 16
  store double %7, ptr %12, align 8
  %13 = getelementptr inbounds i8, ptr %0, i64 24
  store double %10, ptr %13, align 8
  ret void
}